target datalayout = "e-m:e-p270:32:32-p271:32:32-p272:64:64-i64:64-i128:128-f80:128-n8:16:32:64-S128"
target triple = "x86_64-pc-linux-gnu"

%struct.AVChannelLayout = type { i32, i32, %union.anon.1, ptr }
%union.anon.1 = type { i64 }
%struct.AVRational = type { i32, i32 }
%struct.AVFilterContext = type { ptr, ptr, ptr, ptr, ptr, i32, ptr, ptr, i32, ptr, ptr, i32, i32, ptr, ptr, ptr, ptr, i32, ptr, i32, i32 }
%struct.HueSaturationContext = type { ptr, float, float, float, float, float, float, float, i32, i32, i32, [4 x i32], [4 x i32], [4 x [4 x float]], [4 x [4 x i64]], i32, i32, [4 x i8], [2 x ptr] }
%struct.AVFrame = type { [8 x ptr], [8 x i32], ptr, i32, i32, i32, i32, i32, %struct.AVRational, i64, i64, %struct.AVRational, i32, ptr, i32, i32, [8 x ptr], ptr, i32, ptr, i32, i32, i32, i32, i32, i32, i32, i64, ptr, i32, ptr, ptr, i64, i64, i64, i64, ptr, %struct.AVChannelLayout, i64 }

; Function Attrs: alwaysinline nounwind willreturn memory(none) uwtable
define internal zeroext i16 @av_clip_uint16_c(i32 noundef %0) #8 {
  %2 = alloca i16, align 2
  %3 = alloca i32, align 4
  store i32 %0, ptr %3, align 4, !tbaa !41
  %4 = load i32, ptr %3, align 4, !tbaa !41
  %5 = and i32 %4, -65536
  %6 = icmp ne i32 %5, 0
  br i1 %6, label %7, label %12

7:                                                ; preds = %1
  %8 = load i32, ptr %3, align 4, !tbaa !41
  %9 = xor i32 %8, -1
  %10 = ashr i32 %9, 31
  %11 = trunc i32 %10 to i16
  store i16 %11, ptr %2, align 2
  br label %15

12:                                               ; preds = %1
  %13 = load i32, ptr %3, align 4, !tbaa !41
  %14 = trunc i32 %13 to i16
  store i16 %14, ptr %2, align 2
  br label %15

15:                                               ; preds = %12, %7
  %16 = load i16, ptr %2, align 2
  ret i16 %16
}

; Function Attrs: inlinehint nounwind uwtable
define internal void @get_triplet(ptr noundef %0, ptr noundef %1, ptr noundef %2, ptr noundef %3) #7 {
  %5 = alloca ptr, align 8
  %6 = alloca ptr, align 8
  %7 = alloca ptr, align 8
  %8 = alloca ptr, align 8
  %9 = alloca i32, align 4
  %10 = alloca i32, align 4
  %11 = alloca i32, align 4
  store ptr %0, ptr %5, align 8, !tbaa !70
  store ptr %1, ptr %6, align 8, !tbaa !99
  store ptr %2, ptr %7, align 8, !tbaa !99
  store ptr %3, ptr %8, align 8, !tbaa !99
  call void @llvm.lifetime.start.p0(i64 4, ptr %9) #9
  %12 = load ptr, ptr %6, align 8, !tbaa !99
  %13 = load i32, ptr %12, align 4, !tbaa !41
  store i32 %13, ptr %9, align 4, !tbaa !41
  call void @llvm.lifetime.start.p0(i64 4, ptr %10) #9
  %14 = load ptr, ptr %7, align 8, !tbaa !99
  %15 = load i32, ptr %14, align 4, !tbaa !41
  store i32 %15, ptr %10, align 4, !tbaa !41
  call void @llvm.lifetime.start.p0(i64 4, ptr %11) #9
  %16 = load ptr, ptr %8, align 8, !tbaa !99
  %17 = load i32, ptr %16, align 4, !tbaa !41
  store i32 %17, ptr %11, align 4, !tbaa !41
  %18 = load i32, ptr %9, align 4, !tbaa !41
  %19 = sext i32 %18 to i64
  %20 = load ptr, ptr %5, align 8, !tbaa !70
  %21 = getelementptr inbounds [4 x i64], ptr %20, i64 0
  %22 = getelementptr inbounds [4 x i64], ptr %21, i64 0, i64 0
  %23 = load i64, ptr %22, align 8, !tbaa !72
  %24 = mul nsw i64 %19, %23
  %25 = load i32, ptr %10, align 4, !tbaa !41
  %26 = sext i32 %25 to i64
  %27 = load ptr, ptr %5, align 8, !tbaa !70
  %28 = getelementptr inbounds [4 x i64], ptr %27, i64 1
  %29 = getelementptr inbounds [4 x i64], ptr %28, i64 0, i64 0
  %30 = load i64, ptr %29, align 8, !tbaa !72
  %31 = mul nsw i64 %26, %30
  %32 = add nsw i64 %24, %31
  %33 = load i32, ptr %11, align 4, !tbaa !41
  %34 = sext i32 %33 to i64
  %35 = load ptr, ptr %5, align 8, !tbaa !70
  %36 = getelementptr inbounds [4 x i64], ptr %35, i64 2
  %37 = getelementptr inbounds [4 x i64], ptr %36, i64 0, i64 0
  %38 = load i64, ptr %37, align 8, !tbaa !72
  %39 = mul nsw i64 %34, %38
  %40 = add nsw i64 %32, %39
  %41 = ashr i64 %40, 16
  %42 = trunc i64 %41 to i32
  %43 = load ptr, ptr %6, align 8, !tbaa !99
  store i32 %42, ptr %43, align 4, !tbaa !41
  %44 = load i32, ptr %9, align 4, !tbaa !41
  %45 = sext i32 %44 to i64
  %46 = load ptr, ptr %5, align 8, !tbaa !70
  %47 = getelementptr inbounds [4 x i64], ptr %46, i64 0
  %48 = getelementptr inbounds [4 x i64], ptr %47, i64 0, i64 1
  %49 = load i64, ptr %48, align 8, !tbaa !72
  %50 = mul nsw i64 %45, %49
  %51 = load i32, ptr %10, align 4, !tbaa !41
  %52 = sext i32 %51 to i64
  %53 = load ptr, ptr %5, align 8, !tbaa !70
  %54 = getelementptr inbounds [4 x i64], ptr %53, i64 1
  %55 = getelementptr inbounds [4 x i64], ptr %54, i64 0, i64 1
  %56 = load i64, ptr %55, align 8, !tbaa !72
  %57 = mul nsw i64 %52, %56
  %58 = add nsw i64 %50, %57
  %59 = load i32, ptr %11, align 4, !tbaa !41
  %60 = sext i32 %59 to i64
  %61 = load ptr, ptr %5, align 8, !tbaa !70
  %62 = getelementptr inbounds [4 x i64], ptr %61, i64 2
  %63 = getelementptr inbounds [4 x i64], ptr %62, i64 0, i64 1
  %64 = load i64, ptr %63, align 8, !tbaa !72
  %65 = mul nsw i64 %60, %64
  %66 = add nsw i64 %58, %65
  %67 = ashr i64 %66, 16
  %68 = trunc i64 %67 to i32
  %69 = load ptr, ptr %7, align 8, !tbaa !99
  store i32 %68, ptr %69, align 4, !tbaa !41
  %70 = load i32, ptr %9, align 4, !tbaa !41
  %71 = sext i32 %70 to i64
  %72 = load ptr, ptr %5, align 8, !tbaa !70
  %73 = getelementptr inbounds [4 x i64], ptr %72, i64 0
  %74 = getelementptr inbounds [4 x i64], ptr %73, i64 0, i64 2
  %75 = load i64, ptr %74, align 8, !tbaa !72
  %76 = mul nsw i64 %71, %75
  %77 = load i32, ptr %10, align 4, !tbaa !41
  %78 = sext i32 %77 to i64
  %79 = load ptr, ptr %5, align 8, !tbaa !70
  %80 = getelementptr inbounds [4 x i64], ptr %79, i64 1
  %81 = getelementptr inbounds [4 x i64], ptr %80, i64 0, i64 2
  %82 = load i64, ptr %81, align 8, !tbaa !72
  %83 = mul nsw i64 %78, %82
  %84 = add nsw i64 %76, %83
  %85 = load i32, ptr %11, align 4, !tbaa !41
  %86 = sext i32 %85 to i64
  %87 = load ptr, ptr %5, align 8, !tbaa !70
  %88 = getelementptr inbounds [4 x i64], ptr %87, i64 2
  %89 = getelementptr inbounds [4 x i64], ptr %88, i64 0, i64 2
  %90 = load i64, ptr %89, align 8, !tbaa !72
  %91 = mul nsw i64 %86, %90
  %92 = add nsw i64 %84, %91
  %93 = ashr i64 %92, 16
  %94 = trunc i64 %93 to i32
  %95 = load ptr, ptr %8, align 8, !tbaa !99
  store i32 %94, ptr %95, align 4, !tbaa !41
  call void @llvm.lifetime.end.p0(i64 4, ptr %11) #9
  call void @llvm.lifetime.end.p0(i64 4, ptr %10) #9
  call void @llvm.lifetime.end.p0(i64 4, ptr %9) #9
  ret void
}

; Function Attrs: nounwind uwtable
define internal i32 @do_slice_16_1(ptr noundef %0, ptr noundef %1, i32 noundef %2, i32 noundef %3) #1 {
  %5 = alloca ptr, align 8
  %6 = alloca ptr, align 8
  %7 = alloca i32, align 4
  %8 = alloca i32, align 4
  %9 = alloca ptr, align 8
  %10 = alloca ptr, align 8
  %11 = alloca i32, align 4
  %12 = alloca float, align 4
  %13 = alloca i32, align 4
  %14 = alloca i32, align 4
  %15 = alloca i32, align 4
  %16 = alloca i32, align 4
  %17 = alloca i32, align 4
  %18 = alloca i32, align 4
  %19 = alloca i64, align 8
  %20 = alloca ptr, align 8
  %21 = alloca i8, align 1
  %22 = alloca i8, align 1
  %23 = alloca i8, align 1
  %24 = alloca ptr, align 8
  %25 = alloca ptr, align 8
  %26 = alloca ptr, align 8
  %27 = alloca i32, align 4
  %28 = alloca i32, align 4
  %29 = alloca i32, align 4
  %30 = alloca i32, align 4
  %31 = alloca i32, align 4
  %32 = alloca i32, align 4
  %33 = alloca i32, align 4
  %34 = alloca i32, align 4
  %35 = alloca i32, align 4
  store ptr %0, ptr %5, align 8, !tbaa !23
  store ptr %1, ptr %6, align 8, !tbaa !40
  store i32 %2, ptr %7, align 4, !tbaa !41
  store i32 %3, ptr %8, align 4, !tbaa !41
  call void @llvm.lifetime.start.p0(i64 8, ptr %9) #9
  %36 = load ptr, ptr %5, align 8, !tbaa !23
  %37 = getelementptr inbounds nuw %struct.AVFilterContext, ptr %36, i32 0, i32 9
  %38 = load ptr, ptr %37, align 8, !tbaa !24
  store ptr %38, ptr %9, align 8, !tbaa !34
  call void @llvm.lifetime.start.p0(i64 8, ptr %10) #9
  %39 = load ptr, ptr %6, align 8, !tbaa !40
  store ptr %39, ptr %10, align 8, !tbaa !9
  call void @llvm.lifetime.start.p0(i64 4, ptr %11) #9
  store i32 65535, ptr %11, align 4, !tbaa !41
  call void @llvm.lifetime.start.p0(i64 4, ptr %12) #9
  %40 = load ptr, ptr %9, align 8, !tbaa !34
  %41 = getelementptr inbounds nuw %struct.HueSaturationContext, ptr %40, i32 0, i32 4
  %42 = load float, ptr %41, align 4, !tbaa !36
  store float %42, ptr %12, align 4, !tbaa !58
  call void @llvm.lifetime.start.p0(i64 4, ptr %13) #9
  %43 = load ptr, ptr %9, align 8, !tbaa !34
  %44 = getelementptr inbounds nuw %struct.HueSaturationContext, ptr %43, i32 0, i32 9
  %45 = load i32, ptr %44, align 8, !tbaa !39
  store i32 %45, ptr %13, align 4, !tbaa !41
  call void @llvm.lifetime.start.p0(i64 4, ptr %14) #9
  %46 = load ptr, ptr %9, align 8, !tbaa !34
  %47 = getelementptr inbounds nuw %struct.HueSaturationContext, ptr %46, i32 0, i32 16
  %48 = load i32, ptr %47, align 4, !tbaa !50
  store i32 %48, ptr %14, align 4, !tbaa !41
  call void @llvm.lifetime.start.p0(i64 4, ptr %15) #9
  %49 = load ptr, ptr %10, align 8, !tbaa !9
  %50 = getelementptr inbounds nuw %struct.AVFrame, ptr %49, i32 0, i32 3
  %51 = load i32, ptr %50, align 8, !tbaa !79
  store i32 %51, ptr %15, align 4, !tbaa !41
  call void @llvm.lifetime.start.p0(i64 4, ptr %16) #9
  %52 = load ptr, ptr %10, align 8, !tbaa !9
  %53 = getelementptr inbounds nuw %struct.AVFrame, ptr %52, i32 0, i32 4
  %54 = load i32, ptr %53, align 4, !tbaa !84
  store i32 %54, ptr %16, align 4, !tbaa !41
  call void @llvm.lifetime.start.p0(i64 4, ptr %17) #9
  %55 = load i32, ptr %16, align 4, !tbaa !41
  %56 = load i32, ptr %7, align 4, !tbaa !41
  %57 = mul nsw i32 %55, %56
  %58 = load i32, ptr %8, align 4, !tbaa !41
  %59 = sdiv i32 %57, %58
  store i32 %59, ptr %17, align 4, !tbaa !41
  call void @llvm.lifetime.start.p0(i64 4, ptr %18) #9
  %60 = load i32, ptr %16, align 4, !tbaa !41
  %61 = load i32, ptr %7, align 4, !tbaa !41
  %62 = add nsw i32 %61, 1
  %63 = mul nsw i32 %60, %62
  %64 = load i32, ptr %8, align 4, !tbaa !41
  %65 = sdiv i32 %63, %64
  store i32 %65, ptr %18, align 4, !tbaa !41
  call void @llvm.lifetime.start.p0(i64 8, ptr %19) #9
  %66 = load ptr, ptr %10, align 8, !tbaa !9
  %67 = getelementptr inbounds nuw %struct.AVFrame, ptr %66, i32 0, i32 1
  %68 = getelementptr inbounds [8 x i32], ptr %67, i64 0, i64 0
  %69 = load i32, ptr %68, align 8, !tbaa !41
  %70 = sext i32 %69 to i64
  %71 = udiv i64 %70, 2
  store i64 %71, ptr %19, align 8, !tbaa !72
  call void @llvm.lifetime.start.p0(i64 8, ptr %20) #9
  %72 = load ptr, ptr %10, align 8, !tbaa !9
  %73 = getelementptr inbounds nuw %struct.AVFrame, ptr %72, i32 0, i32 0
  %74 = getelementptr inbounds [8 x ptr], ptr %73, i64 0, i64 0
  %75 = load ptr, ptr %74, align 8, !tbaa !85
  %76 = load i64, ptr %19, align 8, !tbaa !72
  %77 = load i32, ptr %17, align 4, !tbaa !41
  %78 = sext i32 %77 to i64
  %79 = mul nsw i64 %76, %78
  %80 = getelementptr inbounds i16, ptr %75, i64 %79
  store ptr %80, ptr %20, align 8, !tbaa !89
  call void @llvm.lifetime.start.p0(i64 1, ptr %21) #9
  %81 = load ptr, ptr %9, align 8, !tbaa !34
  %82 = getelementptr inbounds nuw %struct.HueSaturationContext, ptr %81, i32 0, i32 17
  %83 = getelementptr inbounds [4 x i8], ptr %82, i64 0, i64 0
  %84 = load i8, ptr %83, align 8, !tbaa !86
  store i8 %84, ptr %21, align 1, !tbaa !86
  call void @llvm.lifetime.start.p0(i64 1, ptr %22) #9
  %85 = load ptr, ptr %9, align 8, !tbaa !34
  %86 = getelementptr inbounds nuw %struct.HueSaturationContext, ptr %85, i32 0, i32 17
  %87 = getelementptr inbounds [4 x i8], ptr %86, i64 0, i64 1
  %88 = load i8, ptr %87, align 1, !tbaa !86
  store i8 %88, ptr %22, align 1, !tbaa !86
  call void @llvm.lifetime.start.p0(i64 1, ptr %23) #9
  %89 = load ptr, ptr %9, align 8, !tbaa !34
  %90 = getelementptr inbounds nuw %struct.HueSaturationContext, ptr %89, i32 0, i32 17
  %91 = getelementptr inbounds [4 x i8], ptr %90, i64 0, i64 2
  %92 = load i8, ptr %91, align 2, !tbaa !86
  store i8 %92, ptr %23, align 1, !tbaa !86
  call void @llvm.lifetime.start.p0(i64 8, ptr %24) #9
  %93 = load ptr, ptr %20, align 8, !tbaa !89
  %94 = load i8, ptr %21, align 1, !tbaa !86
  %95 = zext i8 %94 to i32
  %96 = sext i32 %95 to i64
  %97 = getelementptr inbounds i16, ptr %93, i64 %96
  store ptr %97, ptr %24, align 8, !tbaa !89
  call void @llvm.lifetime.start.p0(i64 8, ptr %25) #9
  %98 = load ptr, ptr %20, align 8, !tbaa !89
  %99 = load i8, ptr %22, align 1, !tbaa !86
  %100 = zext i8 %99 to i32
  %101 = sext i32 %100 to i64
  %102 = getelementptr inbounds i16, ptr %98, i64 %101
  store ptr %102, ptr %25, align 8, !tbaa !89
  call void @llvm.lifetime.start.p0(i64 8, ptr %26) #9
  %103 = load ptr, ptr %20, align 8, !tbaa !89
  %104 = load i8, ptr %23, align 1, !tbaa !86
  %105 = zext i8 %104 to i32
  %106 = sext i32 %105 to i64
  %107 = getelementptr inbounds i16, ptr %103, i64 %106
  store ptr %107, ptr %26, align 8, !tbaa !89
  call void @llvm.lifetime.start.p0(i64 4, ptr %27) #9
  %108 = load i32, ptr %17, align 4, !tbaa !41
  store i32 %108, ptr %27, align 4, !tbaa !41
  br label %109

109:                                              ; preds = %176, %4
  %110 = load i32, ptr %27, align 4, !tbaa !41
  %111 = load i32, ptr %18, align 4, !tbaa !41
  %112 = icmp slt i32 %110, %111
  br i1 %112, label %114, label %113

113:                                              ; preds = %109
  store i32 2, ptr %28, align 4
  call void @llvm.lifetime.end.p0(i64 4, ptr %27) #9
  br label %179

114:                                              ; preds = %109
  call void @llvm.lifetime.start.p0(i64 4, ptr %29) #9
  store i32 0, ptr %29, align 4, !tbaa !41
  br label %115

115:                                              ; preds = %162, %114
  %116 = load i32, ptr %29, align 4, !tbaa !41
  %117 = load i32, ptr %15, align 4, !tbaa !41
  %118 = load i32, ptr %14, align 4, !tbaa !41
  %119 = mul nsw i32 %117, %118
  %120 = icmp slt i32 %116, %119
  br i1 %120, label %122, label %121

121:                                              ; preds = %115
  store i32 5, ptr %28, align 4
  call void @llvm.lifetime.end.p0(i64 4, ptr %29) #9
  br label %166

122:                                              ; preds = %115
  call void @llvm.lifetime.start.p0(i64 4, ptr %30) #9
  call void @llvm.lifetime.start.p0(i64 4, ptr %31) #9
  call void @llvm.lifetime.start.p0(i64 4, ptr %32) #9
  call void @llvm.lifetime.start.p0(i64 4, ptr %33) #9
  call void @llvm.lifetime.start.p0(i64 4, ptr %34) #9
  call void @llvm.lifetime.start.p0(i64 4, ptr %35) #9
  %123 = load ptr, ptr %24, align 8, !tbaa !89
  %124 = load i32, ptr %29, align 4, !tbaa !41
  %125 = sext i32 %124 to i64
  %126 = getelementptr inbounds i16, ptr %123, i64 %125
  %127 = load i16, ptr %126, align 2, !tbaa !91
  %128 = zext i16 %127 to i32
  store i32 %128, ptr %33, align 4, !tbaa !41
  store i32 %128, ptr %30, align 4, !tbaa !41
  %129 = load ptr, ptr %25, align 8, !tbaa !89
  %130 = load i32, ptr %29, align 4, !tbaa !41
  %131 = sext i32 %130 to i64
  %132 = getelementptr inbounds i16, ptr %129, i64 %131
  %133 = load i16, ptr %132, align 2, !tbaa !91
  %134 = zext i16 %133 to i32
  store i32 %134, ptr %34, align 4, !tbaa !41
  store i32 %134, ptr %31, align 4, !tbaa !41
  %135 = load ptr, ptr %26, align 8, !tbaa !89
  %136 = load i32, ptr %29, align 4, !tbaa !41
  %137 = sext i32 %136 to i64
  %138 = getelementptr inbounds i16, ptr %135, i64 %137
  %139 = load i16, ptr %138, align 2, !tbaa !91
  %140 = zext i16 %139 to i32
  store i32 %140, ptr %35, align 4, !tbaa !41
  store i32 %140, ptr %32, align 4, !tbaa !41
  %141 = load ptr, ptr %9, align 8, !tbaa !34
  %142 = getelementptr inbounds nuw %struct.HueSaturationContext, ptr %141, i32 0, i32 14
  %143 = getelementptr inbounds [4 x [4 x i64]], ptr %142, i64 0, i64 0
  call void @get_triplet(ptr noundef %143, ptr noundef %30, ptr noundef %31, ptr noundef %32)
  %144 = load i32, ptr %30, align 4, !tbaa !41
  %145 = call zeroext i16 @av_clip_uint16_c(i32 noundef %144) #11
  %146 = load ptr, ptr %24, align 8, !tbaa !89
  %147 = load i32, ptr %29, align 4, !tbaa !41
  %148 = sext i32 %147 to i64
  %149 = getelementptr inbounds i16, ptr %146, i64 %148
  store i16 %145, ptr %149, align 2, !tbaa !91
  %150 = load i32, ptr %31, align 4, !tbaa !41
  %151 = call zeroext i16 @av_clip_uint16_c(i32 noundef %150) #11
  %152 = load ptr, ptr %25, align 8, !tbaa !89
  %153 = load i32, ptr %29, align 4, !tbaa !41
  %154 = sext i32 %153 to i64
  %155 = getelementptr inbounds i16, ptr %152, i64 %154
  store i16 %151, ptr %155, align 2, !tbaa !91
  %156 = load i32, ptr %32, align 4, !tbaa !41
  %157 = call zeroext i16 @av_clip_uint16_c(i32 noundef %156) #11
  %158 = load ptr, ptr %26, align 8, !tbaa !89
  %159 = load i32, ptr %29, align 4, !tbaa !41
  %160 = sext i32 %159 to i64
  %161 = getelementptr inbounds i16, ptr %158, i64 %160
  store i16 %157, ptr %161, align 2, !tbaa !91
  call void @llvm.lifetime.end.p0(i64 4, ptr %35) #9
  call void @llvm.lifetime.end.p0(i64 4, ptr %34) #9
  call void @llvm.lifetime.end.p0(i64 4, ptr %33) #9
  call void @llvm.lifetime.end.p0(i64 4, ptr %32) #9
  call void @llvm.lifetime.end.p0(i64 4, ptr %31) #9
  call void @llvm.lifetime.end.p0(i64 4, ptr %30) #9
  br label %162

162:                                              ; preds = %122
  %163 = load i32, ptr %14, align 4, !tbaa !41
  %164 = load i32, ptr %29, align 4, !tbaa !41
  %165 = add nsw i32 %164, %163
  store i32 %165, ptr %29, align 4, !tbaa !41
  br label %115, !llvm.loop !97

166:                                              ; preds = %121
  %167 = load i64, ptr %19, align 8, !tbaa !72
  %168 = load ptr, ptr %24, align 8, !tbaa !89
  %169 = getelementptr inbounds i16, ptr %168, i64 %167
  store ptr %169, ptr %24, align 8, !tbaa !89
  %170 = load i64, ptr %19, align 8, !tbaa !72
  %171 = load ptr, ptr %25, align 8, !tbaa !89
  %172 = getelementptr inbounds i16, ptr %171, i64 %170
  store ptr %172, ptr %25, align 8, !tbaa !89
  %173 = load i64, ptr %19, align 8, !tbaa !72
  %174 = load ptr, ptr %26, align 8, !tbaa !89
  %175 = getelementptr inbounds i16, ptr %174, i64 %173
  store ptr %175, ptr %26, align 8, !tbaa !89
  br label %176

176:                                              ; preds = %166
  %177 = load i32, ptr %27, align 4, !tbaa !41
  %178 = add nsw i32 %177, 1
  store i32 %178, ptr %27, align 4, !tbaa !41
  br label %109, !llvm.loop !98

179:                                              ; preds = %113
  store i32 1, ptr %28, align 4
  call void @llvm.lifetime.end.p0(i64 8, ptr %26) #9
  call void @llvm.lifetime.end.p0(i64 8, ptr %25) #9
  call void @llvm.lifetime.end.p0(i64 8, ptr %24) #9
  call void @llvm.lifetime.end.p0(i64 1, ptr %23) #9
  call void @llvm.lifetime.end.p0(i64 1, ptr %22) #9
  call void @llvm.lifetime.end.p0(i64 1, ptr %21) #9
  call void @llvm.lifetime.end.p0(i64 8, ptr %20) #9
  call void @llvm.lifetime.end.p0(i64 8, ptr %19) #9
  call void @llvm.lifetime.end.p0(i64 4, ptr %18) #9
  call void @llvm.lifetime.end.p0(i64 4, ptr %17) #9
  call void @llvm.lifetime.end.p0(i64 4, ptr %16) #9
  call void @llvm.lifetime.end.p0(i64 4, ptr %15) #9
  call void @llvm.lifetime.end.p0(i64 4, ptr %14) #9
  call void @llvm.lifetime.end.p0(i64 4, ptr %13) #9
  call void @llvm.lifetime.end.p0(i64 4, ptr %12) #9
  call void @llvm.lifetime.end.p0(i64 4, ptr %11) #9
  call void @llvm.lifetime.end.p0(i64 8, ptr %10) #9
  call void @llvm.lifetime.end.p0(i64 8, ptr %9) #9
  ret i32 0
}