; Function Attrs: nofree norecurse nosync nounwind memory(readwrite, inaccessiblemem: none) uwtable
define internal noundef i32 @do_slice_16_1(ptr noundef readonly captures(none) %0, ptr noundef readonly captures(none) %1, i32 noundef %2, i32 noundef %3) #6 {
  %5 = getelementptr inbounds nuw i8, ptr %0, i64 72
  %6 = load ptr, ptr %5, align 8, !tbaa !19
  %7 = getelementptr inbounds nuw i8, ptr %6, i64 276
  %8 = load i32, ptr %7, align 4, !tbaa !60
  %9 = getelementptr inbounds nuw i8, ptr %1, i64 108
  %10 = load i32, ptr %9, align 4, !tbaa !66
  %11 = mul nsw i32 %10, %2
  %12 = sdiv i32 %11, %3
  %13 = add nsw i32 %2, 1
  %14 = mul nsw i32 %10, %13
  %15 = sdiv i32 %14, %3
  %16 = getelementptr inbounds nuw i8, ptr %1, i64 64
  %17 = load i32, ptr %16, align 8, !tbaa !51
  %18 = sext i32 %17 to i64
  %19 = lshr i64 %18, 1
  %20 = load ptr, ptr %1, align 8, !tbaa !72
  %21 = sext i32 %12 to i64
  %22 = mul nsw i64 %19, %21
  %23 = getelementptr inbounds i16, ptr %20, i64 %22
  %24 = getelementptr inbounds nuw i8, ptr %6, i64 280
  %25 = load i8, ptr %24, align 8, !tbaa !73
  %26 = getelementptr inbounds nuw i8, ptr %6, i64 281
  %27 = load i8, ptr %26, align 1, !tbaa !73
  %28 = getelementptr inbounds nuw i8, ptr %6, i64 282
  %29 = load i8, ptr %28, align 2, !tbaa !73
  %30 = zext i8 %25 to i64
  %31 = getelementptr inbounds nuw i16, ptr %23, i64 %30
  %32 = zext i8 %27 to i64
  %33 = getelementptr inbounds nuw i16, ptr %23, i64 %32
  %34 = zext i8 %29 to i64
  %35 = getelementptr inbounds nuw i16, ptr %23, i64 %34
  %36 = icmp slt i32 %12, %15
  br i1 %36, label %.preheader.lr.ph, label %._crit_edge73

.preheader.lr.ph:                                 ; preds = %4
  %37 = getelementptr inbounds nuw i8, ptr %1, i64 104
  %38 = load i32, ptr %37, align 8, !tbaa !71
  %39 = mul nsw i32 %38, %8
  %40 = icmp sgt i32 %39, 0
  br i1 %40, label %.preheader.lr.ph.split.us, label %._crit_edge73

.preheader.lr.ph.split.us:                        ; preds = %.preheader.lr.ph
  %41 = getelementptr inbounds nuw i8, ptr %6, i64 224
  %42 = getelementptr inbounds nuw i8, ptr %6, i64 192
  %43 = getelementptr inbounds nuw i8, ptr %6, i64 160
  %44 = getelementptr inbounds nuw i8, ptr %6, i64 216
  %45 = getelementptr inbounds nuw i8, ptr %6, i64 184
  %46 = getelementptr inbounds nuw i8, ptr %6, i64 152
  %47 = getelementptr inbounds nuw i8, ptr %6, i64 208
  %48 = getelementptr inbounds nuw i8, ptr %6, i64 176
  %49 = getelementptr inbounds nuw i8, ptr %6, i64 144
  %50 = load i64, ptr %49, align 8, !tbaa !45
  %51 = load i64, ptr %48, align 8, !tbaa !45
  %52 = load i64, ptr %47, align 8, !tbaa !45
  %53 = load i64, ptr %46, align 8, !tbaa !45
  %54 = load i64, ptr %45, align 8, !tbaa !45
  %55 = load i64, ptr %44, align 8, !tbaa !45
  %56 = load i64, ptr %43, align 8, !tbaa !45
  %57 = load i64, ptr %42, align 8, !tbaa !45
  %58 = load i64, ptr %41, align 8, !tbaa !45
  %59 = sext i32 %8 to i64
  %60 = zext nneg i32 %39 to i64
  br label %.preheader.us

.preheader.us:                                    ; preds = %._crit_edge.us, %.preheader.lr.ph.split.us
  %.072.us = phi ptr [ %31, %.preheader.lr.ph.split.us ], [ %99, %._crit_edge.us ]
  %.05371.us = phi ptr [ %33, %.preheader.lr.ph.split.us ], [ %100, %._crit_edge.us ]
  %.05470.us = phi ptr [ %35, %.preheader.lr.ph.split.us ], [ %101, %._crit_edge.us ]
  %.05669.us = phi i32 [ %12, %.preheader.lr.ph.split.us ], [ %102, %._crit_edge.us ]
  br label %61

61:                                               ; preds = %.preheader.us, %61
  %indvars.iv = phi i64 [ 0, %.preheader.us ], [ %indvars.iv.next, %61 ]
  %62 = getelementptr inbounds i16, ptr %.072.us, i64 %indvars.iv
  %63 = load i16, ptr %62, align 2, !tbaa !76
  %64 = getelementptr inbounds i16, ptr %.05371.us, i64 %indvars.iv
  %65 = load i16, ptr %64, align 2, !tbaa !76
  %66 = getelementptr inbounds i16, ptr %.05470.us, i64 %indvars.iv
  %67 = load i16, ptr %66, align 2, !tbaa !76
  %68 = zext i16 %63 to i64
  %69 = mul nsw i64 %50, %68
  %70 = zext i16 %65 to i64
  %71 = mul nsw i64 %51, %70
  %72 = add nsw i64 %71, %69
  %73 = zext i16 %67 to i64
  %74 = mul nsw i64 %52, %73
  %75 = add nsw i64 %72, %74
  %76 = lshr i64 %75, 16
  %77 = trunc i64 %76 to i32
  %78 = mul nsw i64 %53, %68
  %79 = mul nsw i64 %54, %70
  %80 = add nsw i64 %79, %78
  %81 = mul nsw i64 %55, %73
  %82 = add nsw i64 %80, %81
  %83 = lshr i64 %82, 16
  %84 = trunc i64 %83 to i32
  %85 = mul nsw i64 %56, %68
  %86 = mul nsw i64 %57, %70
  %87 = add nsw i64 %86, %85
  %88 = mul nsw i64 %58, %73
  %89 = add nsw i64 %87, %88
  %90 = lshr i64 %89, 16
  %91 = trunc i64 %90 to i32
  %.not.i.us = icmp ult i32 %77, 65536
  %isnotneg.i.us = icmp sgt i32 %77, -1
  %92 = sext i1 %isnotneg.i.us to i16
  %93 = trunc i64 %76 to i16
  %.0.i.us = select i1 %.not.i.us, i16 %93, i16 %92
  store i16 %.0.i.us, ptr %62, align 2, !tbaa !76
  %.not.i57.us = icmp ult i32 %84, 65536
  %isnotneg.i58.us = icmp sgt i32 %84, -1
  %94 = sext i1 %isnotneg.i58.us to i16
  %95 = trunc i64 %83 to i16
  %.0.i59.us = select i1 %.not.i57.us, i16 %95, i16 %94
  store i16 %.0.i59.us, ptr %64, align 2, !tbaa !76
  %.not.i60.us = icmp ult i32 %91, 65536
  %isnotneg.i61.us = icmp sgt i32 %91, -1
  %96 = sext i1 %isnotneg.i61.us to i16
  %97 = trunc i64 %90 to i16
  %.0.i62.us = select i1 %.not.i60.us, i16 %97, i16 %96
  store i16 %.0.i62.us, ptr %66, align 2, !tbaa !76
  %indvars.iv.next = add nsw i64 %indvars.iv, %59
  %98 = icmp slt i64 %indvars.iv.next, %60
  br i1 %98, label %61, label %._crit_edge.us, !llvm.loop !82

._crit_edge.us:                                   ; preds = %61
  %99 = getelementptr inbounds nuw i16, ptr %.072.us, i64 %19
  %100 = getelementptr inbounds nuw i16, ptr %.05371.us, i64 %19
  %101 = getelementptr inbounds nuw i16, ptr %.05470.us, i64 %19
  %102 = add nsw i32 %.05669.us, 1
  %exitcond.not = icmp eq i32 %102, %15
  br i1 %exitcond.not, label %._crit_edge73, label %.preheader.us, !llvm.loop !83

._crit_edge73:                                    ; preds = %._crit_edge.us, %.preheader.lr.ph, %4
  ret i32 0
}